; Function Attrs: mustprogress nounwind uwtable
define hidden void @_ZN5zxing8BitArrayD2Ev(ptr noundef nonnull align 8 captures(none) dereferenceable(88) initializes((0, 8), (16, 24), (40, 48), (64, 72)) %0) unnamed_addr #1 align 2 {
  store ptr getelementptr inbounds nuw inrange(-16, 16) (i8, ptr @_ZTVN5zxing8BitArrayE, i64 16), ptr %0, align 8, !tbaa !8
  %2 = getelementptr inbounds nuw i8, ptr %0, i64 64
  store ptr getelementptr inbounds nuw inrange(-16, 16) (i8, ptr @_ZTVN5zxing8ArrayRefIiEE, i64 16), ptr %2, align 8, !tbaa !8
  %3 = getelementptr inbounds nuw i8, ptr %0, i64 80
  %4 = load ptr, ptr %3, align 8, !tbaa !23
  %.not.i = icmp eq ptr %4, null
  br i1 %.not.i, label %_ZN5zxing8ArrayRefIiED2Ev.exit, label %5

5:                                                ; preds = %1
  %6 = getelementptr inbounds nuw i8, ptr %4, i64 8
  %7 = load i32, ptr %6, align 8, !tbaa !3
  %8 = add i32 %7, -1
  store i32 %8, ptr %6, align 8, !tbaa !3
  %9 = icmp eq i32 %8, 0
  br i1 %9, label %10, label %_ZN5zxing8ArrayRefIiED2Ev.exit

10:                                               ; preds = %5
  store i32 -559026175, ptr %6, align 8, !tbaa !3
  %11 = load ptr, ptr %4, align 8, !tbaa !8
  %12 = getelementptr inbounds nuw i8, ptr %11, i64 8
  %13 = load ptr, ptr %12, align 8
  tail call void %13(ptr noundef nonnull align 8 dereferenceable(12) %4) #17
  br label %_ZN5zxing8ArrayRefIiED2Ev.exit

_ZN5zxing8ArrayRefIiED2Ev.exit:                   ; preds = %1, %5, %10
  store ptr null, ptr %3, align 8, !tbaa !23
  %14 = getelementptr inbounds nuw i8, ptr %0, i64 40
  store ptr getelementptr inbounds nuw inrange(-16, 16) (i8, ptr @_ZTVN5zxing8ArrayRefIiEE, i64 16), ptr %14, align 8, !tbaa !8
  %15 = getelementptr inbounds nuw i8, ptr %0, i64 56
  %16 = load ptr, ptr %15, align 8, !tbaa !23
  %.not.i1 = icmp eq ptr %16, null
  br i1 %.not.i1, label %_ZN5zxing8ArrayRefIiED2Ev.exit2, label %17

17:                                               ; preds = %_ZN5zxing8ArrayRefIiED2Ev.exit
  %18 = getelementptr inbounds nuw i8, ptr %16, i64 8
  %19 = load i32, ptr %18, align 8, !tbaa !3
  %20 = add i32 %19, -1
  store i32 %20, ptr %18, align 8, !tbaa !3
  %21 = icmp eq i32 %20, 0
  br i1 %21, label %22, label %_ZN5zxing8ArrayRefIiED2Ev.exit2

22:                                               ; preds = %17
  store i32 -559026175, ptr %18, align 8, !tbaa !3
  %23 = load ptr, ptr %16, align 8, !tbaa !8
  %24 = getelementptr inbounds nuw i8, ptr %23, i64 8
  %25 = load ptr, ptr %24, align 8
  tail call void %25(ptr noundef nonnull align 8 dereferenceable(12) %16) #17
  br label %_ZN5zxing8ArrayRefIiED2Ev.exit2

_ZN5zxing8ArrayRefIiED2Ev.exit2:                  ; preds = %_ZN5zxing8ArrayRefIiED2Ev.exit, %17, %22
  store ptr null, ptr %15, align 8, !tbaa !23
  %26 = getelementptr inbounds nuw i8, ptr %0, i64 16
  store ptr getelementptr inbounds nuw inrange(-16, 16) (i8, ptr @_ZTVN5zxing8ArrayRefIhEE, i64 16), ptr %26, align 8, !tbaa !8
  %27 = getelementptr inbounds nuw i8, ptr %0, i64 32
  %28 = load ptr, ptr %27, align 8, !tbaa !17
  %.not.i3 = icmp eq ptr %28, null
  br i1 %.not.i3, label %_ZN5zxing8ArrayRefIhED2Ev.exit, label %29

29:                                               ; preds = %_ZN5zxing8ArrayRefIiED2Ev.exit2
  %30 = getelementptr inbounds nuw i8, ptr %28, i64 8
  %31 = load i32, ptr %30, align 8, !tbaa !3
  %32 = add i32 %31, -1
  store i32 %32, ptr %30, align 8, !tbaa !3
  %33 = icmp eq i32 %32, 0
  br i1 %33, label %34, label %_ZN5zxing8ArrayRefIhED2Ev.exit

34:                                               ; preds = %29
  store i32 -559026175, ptr %30, align 8, !tbaa !3
  %35 = load ptr, ptr %28, align 8, !tbaa !8
  %36 = getelementptr inbounds nuw i8, ptr %35, i64 8
  %37 = load ptr, ptr %36, align 8
  tail call void %37(ptr noundef nonnull align 8 dereferenceable(12) %28) #17
  br label %_ZN5zxing8ArrayRefIhED2Ev.exit

_ZN5zxing8ArrayRefIhED2Ev.exit:                   ; preds = %_ZN5zxing8ArrayRefIiED2Ev.exit2, %29, %34
  store ptr null, ptr %27, align 8, !tbaa !17
  ret void
}